target datalayout = "e-m:e-p270:32:32-p271:32:32-p272:64:64-i64:64-i128:128-f80:128-n8:16:32:64-S128"
target triple = "x86_64-unknown-linux-gnu"

%"class.FLAC::Metadata::Prototype" = type <{ ptr, ptr, i8, [7 x i8] }>
%"class.FLAC::Metadata::VorbisComment::Entry" = type <{ ptr, i8, [7 x i8], %struct.FLAC__StreamMetadata_VorbisComment_Entry, ptr, i32, [4 x i8], ptr, i32, [4 x i8] }>
%struct.FLAC__StreamMetadata_VorbisComment_Entry = type { i32, ptr }

; Function Attrs: mustprogress nounwind sspstrong uwtable
define { i32, ptr } @_ZNK4FLAC8Metadata13VorbisComment5Entry9get_entryEv(ptr noundef nonnull align 8 dereferenceable(60) %this) #5 align 2 {
entry:
  %retval = alloca %struct.FLAC__StreamMetadata_VorbisComment_Entry, align 8
  %this.addr = alloca ptr, align 8
  store ptr %this, ptr %this.addr, align 8
  %this1 = load ptr, ptr %this.addr, align 8
  %entry_ = getelementptr inbounds %"class.FLAC::Metadata::VorbisComment::Entry", ptr %this1, i32 0, i32 3
  call void @llvm.memcpy.p0.p0.i64(ptr align 8 %retval, ptr align 8 %entry_, i64 16, i1 false)
  %0 = load { i32, ptr }, ptr %retval, align 8
  ret { i32, ptr } %0
}

; Function Attrs: mustprogress sspstrong uwtable
define noundef zeroext i1 @_ZN4FLAC8Metadata13VorbisComment14append_commentERKNS1_5EntryE(ptr noundef nonnull align 8 dereferenceable(17) %this, ptr noundef nonnull align 8 dereferenceable(60) %entry1) #0 align 2 {
entry:
  %this.addr = alloca ptr, align 8
  %entry.addr = alloca ptr, align 8
  %agg.tmp = alloca %struct.FLAC__StreamMetadata_VorbisComment_Entry, align 8
  store ptr %this, ptr %this.addr, align 8
  store ptr %entry1, ptr %entry.addr, align 8
  %this2 = load ptr, ptr %this.addr, align 8
  %object_ = getelementptr inbounds %"class.FLAC::Metadata::Prototype", ptr %this2, i32 0, i32 1
  %0 = load ptr, ptr %object_, align 8
  %1 = load ptr, ptr %entry.addr, align 8
  %call = call { i32, ptr } @_ZNK4FLAC8Metadata13VorbisComment5Entry9get_entryEv(ptr noundef nonnull align 8 dereferenceable(60) %1)
  %2 = getelementptr inbounds { i32, ptr }, ptr %agg.tmp, i32 0, i32 0
  %3 = extractvalue { i32, ptr } %call, 0
  store i32 %3, ptr %2, align 8
  %4 = getelementptr inbounds { i32, ptr }, ptr %agg.tmp, i32 0, i32 1
  %5 = extractvalue { i32, ptr } %call, 1
  store ptr %5, ptr %4, align 8
  %6 = getelementptr inbounds { i32, ptr }, ptr %agg.tmp, i32 0, i32 0
  %7 = load i32, ptr %6, align 8
  %8 = getelementptr inbounds { i32, ptr }, ptr %agg.tmp, i32 0, i32 1
  %9 = load ptr, ptr %8, align 8
  %call3 = call i32 @FLAC__metadata_object_vorbiscomment_append_comment(ptr noundef %0, i32 %7, ptr %9, i32 noundef 1)
  %tobool = icmp ne i32 %call3, 0
  ret i1 %tobool
}